; Function Attrs: mustprogress nofree norecurse nosync nounwind willreturn memory(read, inaccessiblemem: none) uwtable
define hidden noundef zeroext i1 @_ZNK3opt7context20contains_quantifiersEv(ptr nocapture noundef nonnull readonly align 8 dereferenceable(792) %this) local_unnamed_addr #11 align 2 {
entry:
  %m_nodes.i = getelementptr inbounds i8, ptr %this, i64 216
  %0 = load ptr, ptr %m_nodes.i, align 8
  %cmp.i.i.i = icmp eq ptr %0, null
  br i1 %cmp.i.i.i, label %return, label %_ZNK15ref_vector_coreI4expr19ref_manager_wrapperIS0_11ast_managerEE3endEv.exit

_ZNK15ref_vector_coreI4expr19ref_manager_wrapperIS0_11ast_managerEE3endEv.exit: ; preds = %entry
  %arrayidx.i.i.i = getelementptr inbounds i8, ptr %0, i64 -4
  %1 = load i32, ptr %arrayidx.i.i.i, align 4
  %2 = zext i32 %1 to i64
  %add.ptr.i = getelementptr inbounds ptr, ptr %0, i64 %2
  %cmp.not5.not = icmp eq i32 %1, 0
  br i1 %cmp.not5.not, label %return, label %for.body

for.body:                                         ; preds = %_ZNK15ref_vector_coreI4expr19ref_manager_wrapperIS0_11ast_managerEE3endEv.exit, %for.inc
  %__begin1.06 = phi ptr [ %incdec.ptr, %for.inc ], [ %0, %_ZNK15ref_vector_coreI4expr19ref_manager_wrapperIS0_11ast_managerEE3endEv.exit ]
  %3 = load ptr, ptr %__begin1.06, align 8
  %m_kind.i.i.i = getelementptr inbounds i8, ptr %3, i64 4
  %bf.load.i.i.i = load i32, ptr %m_kind.i.i.i, align 4
  %trunc = trunc i32 %bf.load.i.i.i to i16
  switch i16 %trunc, label %for.inc [
    i16 0, label %cond.true.i
    i16 2, label %return
  ]

cond.true.i:                                      ; preds = %for.body
  %m_num_args.i.i.i = getelementptr inbounds i8, ptr %3, i64 24
  %4 = load i32, ptr %m_num_args.i.i.i, align 8
  %cmp.i.i.i4 = icmp eq i32 %4, 0
  %m_args.i.i.i = getelementptr inbounds i8, ptr %3, i64 32
  %idx.ext.i.i.i = zext i32 %4 to i64
  %add.ptr.i.i.i = getelementptr inbounds ptr, ptr %m_args.i.i.i, i64 %idx.ext.i.i.i
  %cond.i.i.i = select i1 %cmp.i.i.i4, ptr @_ZN3app16g_constant_flagsE, ptr %add.ptr.i.i.i
  %bf.load.i.i = load i32, ptr %cond.i.i.i, align 4
  %5 = and i32 %bf.load.i.i, 131072
  %tobool.i.i.not = icmp eq i32 %5, 0
  br i1 %tobool.i.i.not, label %for.inc, label %return

for.inc:                                          ; preds = %for.body, %cond.true.i
  %incdec.ptr = getelementptr inbounds i8, ptr %__begin1.06, i64 8
  %cmp.not.not = icmp eq ptr %incdec.ptr, %add.ptr.i
  br i1 %cmp.not.not, label %return, label %for.body

return:                                           ; preds = %for.inc, %cond.true.i, %for.body, %entry, %_ZNK15ref_vector_coreI4expr19ref_manager_wrapperIS0_11ast_managerEE3endEv.exit
  %cmp.not.lcssa = phi i1 [ false, %_ZNK15ref_vector_coreI4expr19ref_manager_wrapperIS0_11ast_managerEE3endEv.exit ], [ false, %entry ], [ true, %for.body ], [ true, %cond.true.i ], [ false, %for.inc ]
  ret i1 %cmp.not.lcssa
}